target datalayout = "e-m:e-p270:32:32-p271:32:32-p272:64:64-i64:64-i128:128-f80:128-n8:16:32:64-S128"
target triple = "x86_64-pc-linux-gnu"

%struct.AVRational = type { i32, i32 }
%struct.AVFrame = type { [8 x ptr], [8 x i32], ptr, i32, i32, i32, i32, i32, %struct.AVRational, i64, i64, %struct.AVRational, i32, ptr, i32, i32, [8 x ptr], ptr, i32, ptr, i32, i32, i32, i32, i32, i32, i32, i64, ptr, i32, ptr, ptr, i64, i64, i64, i64, ptr, %struct.AVChannelLayout, i64 }
%struct.AVChannelLayout = type { i32, i32, %union.anon, ptr }
%union.anon = type { i64 }

; Function Attrs: nounwind uwtable
define ptr @av_frame_new_side_data_from_buf(ptr noundef %0, i32 noundef %1, ptr noundef %2) #0 {
  %4 = alloca ptr, align 8
  %5 = alloca i32, align 4
  %6 = alloca ptr, align 8
  store ptr %0, ptr %4, align 8, !tbaa !4
  store i32 %1, ptr %5, align 4, !tbaa !27
  store ptr %2, ptr %6, align 8, !tbaa !53
  %7 = load ptr, ptr %4, align 8, !tbaa !4
  %8 = getelementptr inbounds nuw %struct.AVFrame, ptr %7, i32 0, i32 19
  %9 = load ptr, ptr %4, align 8, !tbaa !4
  %10 = getelementptr inbounds nuw %struct.AVFrame, ptr %9, i32 0, i32 20
  %11 = load i32, ptr %5, align 4, !tbaa !27
  %12 = load ptr, ptr %6, align 8, !tbaa !53
  %13 = call ptr @ff_frame_side_data_add_from_buf(ptr noundef %8, ptr noundef %10, i32 noundef %11, ptr noundef %12)
  ret ptr %13
}

; Function Attrs: nounwind uwtable
define ptr @av_frame_new_side_data(ptr noundef %0, i32 noundef %1, i64 noundef %2) #0 {
  %4 = alloca ptr, align 8
  %5 = alloca i32, align 4
  %6 = alloca i64, align 8
  %7 = alloca ptr, align 8
  %8 = alloca ptr, align 8
  store ptr %0, ptr %4, align 8, !tbaa !4
  store i32 %1, ptr %5, align 4, !tbaa !27
  store i64 %2, ptr %6, align 8, !tbaa !50
  call void @llvm.lifetime.start.p0(i64 8, ptr %7) #7
  call void @llvm.lifetime.start.p0(i64 8, ptr %8) #7
  %9 = load i64, ptr %6, align 8, !tbaa !50
  %10 = call ptr @av_buffer_alloc(i64 noundef %9)
  store ptr %10, ptr %8, align 8, !tbaa !53
  %11 = load ptr, ptr %4, align 8, !tbaa !4
  %12 = load i32, ptr %5, align 4, !tbaa !27
  %13 = load ptr, ptr %8, align 8, !tbaa !53
  %14 = call ptr @av_frame_new_side_data_from_buf(ptr noundef %11, i32 noundef %12, ptr noundef %13)
  store ptr %14, ptr %7, align 8, !tbaa !79
  %15 = load ptr, ptr %7, align 8, !tbaa !79
  %16 = icmp ne ptr %15, null
  br i1 %16, label %18, label %17

17:                                               ; preds = %3
  call void @av_buffer_unref(ptr noundef %8)
  br label %18

18:                                               ; preds = %17, %3
  %19 = load ptr, ptr %7, align 8, !tbaa !79
  call void @llvm.lifetime.end.p0(i64 8, ptr %8) #7
  call void @llvm.lifetime.end.p0(i64 8, ptr %7) #7
  ret ptr %19
}