; Function Attrs: nounwind uwtable
define ptr @av_frame_new_side_data(ptr noundef %0, i32 noundef %1, i64 noundef %2) local_unnamed_addr #0 {
  %4 = alloca ptr, align 8
  call void @llvm.lifetime.start.p0(i64 8, ptr nonnull %4) #8
  %5 = tail call ptr @av_buffer_alloc(i64 noundef %2) #8
  store ptr %5, ptr %4, align 8, !tbaa !42
  %6 = getelementptr inbounds nuw i8, ptr %0, i64 264
  %7 = getelementptr inbounds nuw i8, ptr %0, i64 272
  %8 = tail call ptr @ff_frame_side_data_add_from_buf(ptr noundef nonnull %6, ptr noundef nonnull %7, i32 noundef %1, ptr noundef %5) #8
  %.not = icmp eq ptr %8, null
  br i1 %.not, label %9, label %10

9:                                                ; preds = %3
  call void @av_buffer_unref(ptr noundef nonnull %4) #8
  br label %10

10:                                               ; preds = %9, %3
  call void @llvm.lifetime.end.p0(i64 8, ptr nonnull %4) #8
  ret ptr %8
}